(lp1
I-7350016041836346780
aI-1414629913370185531
aI7320727759167800597
aI-432013326114245852
aI-3135660909298331237
aI432603398705041889
aI-8328082869016361452
aI3815895270137527740
aI-6781899994583266954
aI-3504833131601307797
aI-6585714605111847104
aI-3340446285470130362
aI-5009162291280570223
aI-2781848489309143993
aI3948920064433875659
aI2862776659746775859
aI-37907571193526319
aI4801995448682126654
aI-1788719058298570309
aI6832416051185168714
aI-6255540032773987983
aI7008966745609974065
aI-4028162038183286703
aI4548155082593060271
aI5418100951910510296
aI-675448703116034618
aI4144477709462923205
aI-4363078035875081147
aI3446196802867832693
aI-5028121238471425084
aI-1910245051070892706
aI1745738181911924152
aI170970044691425562
aI-3800303526497600222
aI-5916414548454454617
aI-3087073631668725932
aI5588492517016023955
aI637041887643626858
aI-3588635875120930543
aI6576913075274483764
aI3984447187359309362
aI-7566371267630820992
aI7896289224831271515
aI-930814543022735558
aI-5667403230385094080
aI7498127409934133811
aI4896736371658250717
aI-4938273825362930438
aI1644842747717455646
aI-4498345282488466393
aI-8426005537896458688
aI2055900476865888369
aI741744228800472973
aI-8083517840975645466
aI8181701497199882872
aI-9103809648174187669
aI4657391182214419492
aI-8100989014473244391
aI-3284406781760616167
aI-1686891708230061934
aI5091251762926401978
aI-4057361332002456269
aI2983536464593786875
aI-5452746323539263088
aI6044420560009392384
aI7515738033783704125
aI-7392047215203023713
aI5846217157143581186
aI6338165985484359147
aI-3154569531542113042
aI-276926295448816915
aI-6503539600705180364
aI2650464363499277634
aI-8837443702443919685
aI7203610608713810416
aI-4956907956064748
aI4921326568126669890
aI1420088426328623351
aI-7323267241481276022
aI8657127624852747857
aI-6899658162062409043
aI-1895302726281832874
aI-7260030337958498669
aI-3384693422602505839
aI-126072489123320732
aI8223532871050327199
aI-6983046349083362865
aI5053620732092104968
aI-438805790001787067
aI8797473925912529232
aI-1607837576548839364
aI-4633642511033582844
aI6926623462067628512
aI-5175133391449268403
aI-1733066275063012312
aI7946380074482476105
aI-415672890725309422
aI-3633228212634938053
aI-2829471257493931441
aI8733890216157935389
aI-8623332048506789938
aI8163305254164628923
aI-4913867631825920260
aI387451278865173548
aI1094032044288408295
aI-8263815624484443754
aI-2069315439396225574
aI-9052910699646489026
aI-7823636704209097075
aI-8325915961129720620
aI-3982082214649239683
aI4279072006352032391
aI6840870263803290292
aI-8091159836160758875
aI8148751022372056186
aI3957265890165248376
aI-5375032207694408079
aI6275973976300227300
aI569670934177802810
aI-9004305906743577265
aI7505786879156553443
aI6383766625260345570
aI6485318370033841452
aI2250991911358064218
aI-1320698483577254294
aI-2136201275932620434
aI3511573014593171002
aI-6347601741015764369
aI-3824180172113761567
aI-7298254848795864081
aI-1939545968270053872
aI-5950696649024202551
aI-1289701133348910292
aI-7277030463646699811
aI5395353990216106979
aI-6988789563325469844
aI4104214093789956924
aI-4266218873097936673
aI599798566884967269
aI7404450358649889295
aI1834418202476150264
aI-5828771276249797272
aI1069930171633810499
aI5269500169463471163
aI-7422491443808586817
aI-2873189391811543253
aI-6889879133540844286
aI-3397190821629137669
aI-6640706653506998347
aI-5223507383728430871
aI-4176581836734241103
aI173442263591417131
aI818410698230376682
aI5684564652904370608
aI-3899647227329596097
aI6718621721892911773
aI421041180603952187
aI-4926382494852854998
aI-2770621622829557668
aI-3357461524398329437
aI3445444800750446913
aI-2745223571265105118
aI2524086757597147909
aI-7533041950978332230
aI-1273745140177196226
aI-7023477594597134992
aI1987656942299910237
aI-4189105970330666769
aI-1830860734067967436
aI-7422149787064775696
aI-8785323532545198610
aI3177119548420624825
aI9188170026630730513
aI6052528368692726885
aI5371272566250930884
aI7965036347910863344
aI7396647253292755172
aI186408329588730418
aI4004215061041877662
aI-1183412055978820803
aI7891453935824161540
aI-974103150446089159
aI2721083044565526571
aI8644447662041987076
aI-5087289751073826593
aI4713202187739066188
aI283039776343997411
aI1601334565879947334
aI-5174827531777204113
aI-3848320336376293904
aI4545805328651954387
aI9113903500255920594
aI-6310259897668412091
aI5467086852486465862
aI-432733275541226306
aI-4180059942462065032
aI-6529904590715718361
aI-6701309452888137108
aI4112212621712961419
aI-1582817634575293242
aI-5992542507750565956
aI-6360485414532945142
aI-4444829686063623764
aI1782728910343749276
aI2428722375455597151
aI-1370934598151207323
aI5902408617703122472
aI5537483125944916887
aI-1649539528376826990
aI3919791465124435095
aI1082384140014287179
aI2301400082623335831
aI-3033703428829144154
aI-4572821103668338429
aI-7591882235827140506
aI1764726957133167120
aI610405920825687528
aI-5381698166831458654
aI5583313892109490956
aI-7824456482245677147
aI-2768252663807861785
aI7810467195112696004
aI2124130253901203767
aI-8284578290110153016
aI8300513461740050198
aI-219897257117935638
aI-9176777728539573869
aI-4411663827557414605
aI-5115525971966490801
aI-8405052888400681861
aI1037874300555655171
aI3263627470791053582
aI-4463588978535743677
aI5557530056196953939
aI-1699150020016658053
aI4532906800420642899
aI-3869541730061372007
aI30059941958094942
aI-5947065103782047760
aI-8408702108389981429
aI-8347502345367445899
aI-827314356646876632
aI-4357590991209860563
aI-2520269721027016997
aI4915955190293819678
aI4974919724354020924
aI5745114621671165228
aI5137384796220779217
aI-2082927672675984529
aI-992329844015570894
aI-3705201131022867681
aI7162147128988781654
aI-6530783107472071072
aI-4077518305911365704
aI-6624055701307543731
aI-741959163462959924
aI2189063023608303139
aI-2624156774170601146
aI3205761368425477962
aI-1248299398781514851
aI-7621613545042183330
aI3899575699451022718
aI8014994857777192626
aI-1557104162340180387
aI-7342128483511476950
aI-8253461895253818914
aI-2668105720954259315
aI-5513999183148161378
aI8866124222607639175
aI-3915867818195289339
aI6188659954804398816
aI7793514931467307814
aI-235063920063122165
aI5975513366022323726
aI-5346373448188249966
aI3589657870027033193
aI5164896778417267804
aI-5328773978942101568
aI-6010143290446339788
aI4094365099403197982
aI506805309427374046
aI2866779014060237169
aI4690902489693116245
aI1306920841824830262
aI1629126832604261654
aI-3931250589872545672
aI935394060776040759
aI-3564329965348711759
aI5003248378584876365
aI-9104685994806102509
aI7365939072334141449
aI2838383103853743978
aI3505468035999191661
aI-7975466135328301780
aI3822999697309052148
aI1921669949599533561
aI3718892430898046607
aI-49166367350811125
aI-2926583608503048186
aI6946068698325209039
aI2430246703975167168
aI812273785471659733
aI3233098885237981713
aI8814278137519188505
aI1085125989140772150
aI-1273222839835344152
aI3497875473227467926
aI9098317799219485838
aI-6480582397221382824
aI9175316401460691199
aI-4128481578171497406
aI1519809529867999218
aI2678850312626503658
aI4318111362988282072
aI-4224447909754093602
aI-1753589441329428554
aI6480177652999888709
aI8922487427046956769
aI772989221145503767
aI151722329248728053
aI-5473729483561901938
aI-6416454645108627487
aI-1341357523323552753
aI-5669761962918698630
aI1411016028635213382
aI-5076234030967217415
aI6972903816792047604
aI3935478571500107896
aI-8187151930653775556
aI-7545443749419978147
aI5964223409872819717
aI6775456446279519968
aI8828107522611302391
aI3482507463755021662
aI-9176493726141362997
aI6255207820515280400
aI-2679485971683994484
aI8190892854778679990
aI-5698346446218021924
aI8537591826384574690
aI5816637226166652663
aI-625386760779467216
aI7345547647413518684
aI7049386757640618102
aI-7446098354811440815
aI8312513094808394362
aI3738569843489516374
aI6413718917116729848
aI7548787175341231305
aI7662784748253246582
aI-4026737217040176695
aI930809587370565237
aI8025812127102946281
aI1085700398755907063
aI4001578105713952304
aI1134400997557567171
aI772239637550309230
aI9024113800634509781
aI-7414257775646756168
aI-9023673143284466681
aI3057786330026444346
aI-9019999287049325220
aI6059291749155313594
aI1749907522390039098
aI8154792547235820627
aI8717254307171300417
aI7901174270296517036
aI-6937842680573538544
aI3117164419064548038
aI-2096894201040354127
aI-4655627741597301001
aI4768955830564140030
aI2794306158759239773
aI2418541580551374256
aI262093208524556141
aI4786001977598230319
aI9153183816638089351
aI-1788662980720237949
aI-5454072034043391962
aI-9063241267899258006
aI-6298066895502979694
aI-5686526135193233224
aI8646826511421989412
aI-5748487416370677460
aI-1565548420563855088
aI8028499688518858329
aI-8109662908151835283
aI-9074395444308280207
aI-7427915656845878738
aI5342802985003059373
aI-5834504405494926365
aI5414117374412833688
aI9091175029703223656
aI-8622290532983018382
aI-4439217709450771125
aI3665463279310799838
aI-3517255215598277001
aI2153591741819230344
aI-6970353031971217460
aI7715085246048758314
aI2184691543751256329
aI7626583003488533057
aI-5107076009807604539
aI1503109304571831933
aI-8422712151479328048
aI6075106678481030154
aI6427565003034728893
aI5538305885427057890
aI4055792367238862143
aI1302184979945174696
aI-2793352064337772751
aI7224761149059154901
aI3224178790828855109
aI-943417563967110790
aI-1212931399181010062
aI7098983069970752449
aI-7355790413480773620
aI4759702163857847555
aI1825459473439809928
aI6909438049393224126
aI6309822814726322855
aI1828333136837661251
aI364792900712425611
aI-7248886352187142399
aI-2102002565095778775
aI3226715369490434375
aI615168229781558045
aI-4244490948835207659
aI-3587381298752903456
aI-844272382908594981
aI244983286706774666
aI-8083055711375811980
aI7807123672661618491
aI4732827038036569905
aI-6513317210432625443
aI4022660427933296455
aI7572489245265928955
aI-4871027093840075133
aI5213242057014344784
aI7397490840490286983
aI2224613652122068269
aI-1064631205702840560
aI-3569284336579961923
aI7584328793445497913
aI4875263219240800027
aI-3618236556105956159
aI3505499100024479642
aI-8067594798102974629
aI-1437974742101448652
aI685314562831371177
aI-4680756077993061398
aI-7943034196528107231
aI-8747159013593541008
aI654704843859100732
aI-5068662358770099007
aI-336515239352397905
aI5760261375929271923
aI7664159675940838902
aI3296128308426594347
aI-703527978138971269
aI9153103556939704254
aI-2198932538388077463
aI-7602689470634694357
aI-502267594460995484
aI-7805975452757860835
aI8731249697746578521
aI-3096150519655802737
aI-4432573084321102108
aI-6383826290153253777
aI1846795975364990582
aI5042802837417052025
aI3096307683256041267
aI-6773410449700890131
aI6310849063772697027
aI-2995091998206834336
aI-1754529601381040113
aI-2344197967825146366
aI3312430000203828077
aI-6477318863157107610
aI-1026982832712233290
aI-4554281931748759412
aI-37383916441219872
aI-6313037680791023319
aI-6946267780376860942
aI-5292881584820280243
aI-4258294339806507010
aI5908398859496361640
aI6480365127142402482
aI3143221503670037791
aI37883697416938221
aI6883864973791004
aI-7571323118977577336
aI-1718542723536876480
aI7688604192361570607
aI4817972815432265628
aI-2409780934664804695
aI3566305127755377570
aI-8234987816816098787
aI-8580734967456947414
aI-4039612371439909473
aI-3701705928134556639
aI1293389853165812041
aI-4669853754449828647
aI-2229123294953555973
aI-6700113649885304288
aI765241604987978387
aI-3425192781131367338
aI6756574485226709290
aI-6344636291312314087
aI4649134107531955763
aI-7139542591816149240
aI-4697695835293439844
aI6974322336698730397
aI4041381240888804346
aI-8206309500848168191
aI-3090239269648584282
aI-4153399398701032035
aI-2047787725903241088
aI-2320899390925708637
aI5195195096720074380
aI3976839855885284321
aI-3601483383539366473
aI6235339994290252507
aI3643842960453520456
aI-1862859242623173106
aI-7326811513155049000
aI-823188230927197751
aI-8468845550337893757
aI4266154481413011575
aI7960791585299647506
aI3702664361978264872
aI776134568973869863
aI1664523629486807109
aI-4117296911385070113
aI-277633528185134629
aI-2285163525072832644
aI-1297555164195064233
aI-2763579919608580833
aI-1508467413568922352
aI-5702797805494061278
aI3401112568348038817
aI-892342554246663262
aI-517453209932803793
aI-4511702980704579405
aI6529271674017316865
aI8457623145384954476
aI3986590493824352795
aI8289469125479206774
aI-8600812388522954948
aI-241833861846379268
aI-2899062351997780076
aI3370207722332230496
aI9152600458130423640
aI-5219870690514069861
aI5503472379629281118
aI-3723975739005592450
aI2063036261921308546
aI-1122933081484600478
aI6998490055203881595
aI-4696810282391156661
aI-6885029687081929171
aI8303939477705951282
aI7847158812988276487
aI2163426962904905055
aI-6642596782823708311
aI-7835808765554774862
aI10130487361067674
aI7430701241243119737
aI1207467080556043756
aI8768923530871309301
aI4968394065901109593
aI4478105958747383077
aI4166224805839303483
aI2670153746224708088
aI1936297762247406226
aI1148204555640999331
aI-3358701731748382873
aI-3897355657661388931
aI6355952975749336947
aI6206544892289192721
aI8052282517290546847
aI-1335855834523125607
aI-6045524540691744818
aI6382092150997339487
aI3442123804738612347
aI62097496458962478
aI266916269989576430
aI-6855209751885117193
aI4635138465579849071
aI8962155227134297786
aI-8832728739610608844
aI7361297688706975444
aI-2390388230874740012
aI-9071326293262093953
aI-2602362431540887418
aI2348790502251622328
aI2868020306157628967
aI7042740350860218946
aI-8468641265202782179
aI6729789044774662981
aI4609223304829788267
aI-7932084645054667261
aI5311244911113600449
aI-1623161008005270866
aI-5429436137027228140
aI8841387255095848852
aI4145775525254285880
aI263080519676070613
aI-1757923647571026834
a.